; ModuleID = 'source-C-CXX/25/1153.cpp'
source_filename = "source-C-CXX/25/1153.cpp"
target datalayout = "e-m:e-p270:32:32-p271:32:32-p272:64:64-i64:64-f80:128-n8:16:32:64-S128"
target triple = "x86_64-pc-linux-gnu"

%"class.std::ios_base::Init" = type { i8 }
%"class.std::basic_istream" = type { i32 (...)**, i64, %"class.std::basic_ios" }
%"class.std::basic_ios" = type { %"class.std::ios_base", %"class.std::basic_ostream"*, i8, i8, %"class.std::basic_streambuf"*, %"class.std::ctype"*, %"class.std::num_put"*, %"class.std::num_get"* }
%"class.std::ios_base" = type { i32 (...)**, i64, i64, i32, i32, i32, %"struct.std::ios_base::_Callback_list"*, %"struct.std::ios_base::_Words", [8 x %"struct.std::ios_base::_Words"], i32, %"struct.std::ios_base::_Words"*, %"class.std::locale" }
%"struct.std::ios_base::_Callback_list" = type { %"struct.std::ios_base::_Callback_list"*, void (i32, %"class.std::ios_base"*, i32)*, i32, i32 }
%"struct.std::ios_base::_Words" = type { i8*, i64 }
%"class.std::locale" = type { %"class.std::locale::_Impl"* }
%"class.std::locale::_Impl" = type { i32, %"class.std::locale::facet"**, i64, %"class.std::locale::facet"**, i8** }
%"class.std::locale::facet" = type <{ i32 (...)**, i32, [4 x i8] }>
%"class.std::basic_ostream" = type { i32 (...)**, %"class.std::basic_ios" }
%"class.std::basic_streambuf" = type { i32 (...)**, i8*, i8*, i8*, i8*, i8*, i8*, %"class.std::locale" }
%"class.std::ctype" = type <{ %"class.std::locale::facet.base", [4 x i8], %struct.__locale_struct*, i8, [7 x i8], i32*, i32*, i16*, i8, [256 x i8], [256 x i8], i8, [6 x i8] }>
%"class.std::locale::facet.base" = type <{ i32 (...)**, i32 }>
%struct.__locale_struct = type { [13 x %struct.__locale_data*], i16*, i32*, i32*, [13 x i8*] }
%struct.__locale_data = type opaque
%"class.std::num_put" = type { %"class.std::locale::facet.base", [4 x i8] }
%"class.std::num_get" = type { %"class.std::locale::facet.base", [4 x i8] }

@_ZStL8__ioinit = internal global %"class.std::ios_base::Init" zeroinitializer, align 1
@__dso_handle = external hidden global i8
@_ZSt3cin = external global %"class.std::basic_istream", align 8
@_ZSt4cout = external global %"class.std::basic_ostream", align 8
@llvm.global_ctors = appending global [1 x { i32, void ()*, i8* }] [{ i32, void ()*, i8* } { i32 65535, void ()* @_GLOBAL__sub_I_1153.cpp, i8* null }]

declare void @_ZNSt8ios_base4InitC1Ev(%"class.std::ios_base::Init"* nonnull align 1 dereferenceable(1)) unnamed_addr #0

; Function Attrs: nounwind
declare void @_ZNSt8ios_base4InitD1Ev(%"class.std::ios_base::Init"* nonnull align 1 dereferenceable(1)) unnamed_addr #1

; Function Attrs: nofree nounwind
declare i32 @__cxa_atexit(void (i8*)*, i8*, i8*) local_unnamed_addr #2

; Function Attrs: mustprogress norecurse sspstrong uwtable
define dso_local i32 @main() local_unnamed_addr #3 {
  %1 = alloca i8, align 1
  %2 = alloca [101 x i8], align 16
  %3 = alloca [101 x i8], align 16
  %4 = getelementptr inbounds [101 x i8], [101 x i8]* %2, i64 0, i64 0
  call void @llvm.lifetime.start.p0i8(i64 101, i8* nonnull %4) #6
  %5 = getelementptr inbounds [101 x i8], [101 x i8]* %3, i64 0, i64 0
  call void @llvm.lifetime.start.p0i8(i64 101, i8* nonnull %5) #6
  br label %6

6:                                                ; preds = %6, %0
  %7 = phi i64 [ %12, %6 ], [ 0, %0 ]
  %8 = getelementptr inbounds [101 x i8], [101 x i8]* %2, i64 0, i64 %7
  %9 = call nonnull align 8 dereferenceable(16) %"class.std::basic_istream"* @_ZNSi3getERc(%"class.std::basic_istream"* nonnull align 8 dereferenceable(16) @_ZSt3cin, i8* nonnull align 1 dereferenceable(1) %8)
  %10 = load i8, i8* %8, align 1, !tbaa !5
  %11 = icmp eq i8 %10, 10
  %12 = add nuw i64 %7, 1
  br i1 %11, label %13, label %6, !llvm.loop !8

13:                                               ; preds = %6
  %14 = trunc i64 %7 to i32
  %15 = icmp eq i32 %14, 0
  br i1 %15, label %74, label %16

16:                                               ; preds = %13
  %17 = and i64 %7, 4294967295
  %18 = and i64 %7, 1
  %19 = icmp eq i64 %17, 1
  br i1 %19, label %22, label %20

20:                                               ; preds = %16
  %21 = sub nsw i64 %17, %18
  br label %45

22:                                               ; preds = %83, %16
  %23 = phi i32 [ undef, %16 ], [ %84, %83 ]
  %24 = phi i64 [ 0, %16 ], [ %85, %83 ]
  %25 = phi i32 [ 0, %16 ], [ %84, %83 ]
  %26 = icmp eq i64 %18, 0
  br i1 %26, label %40, label %27

27:                                               ; preds = %22
  %28 = getelementptr inbounds [101 x i8], [101 x i8]* %2, i64 0, i64 %24
  %29 = load i8, i8* %28, align 1, !tbaa !5
  %30 = icmp eq i8 %29, 32
  br i1 %30, label %31, label %36

31:                                               ; preds = %27
  %32 = add nsw i64 %24, -1
  %33 = getelementptr inbounds [101 x i8], [101 x i8]* %2, i64 0, i64 %32
  %34 = load i8, i8* %33, align 1, !tbaa !5
  %35 = icmp eq i8 %34, 32
  br i1 %35, label %40, label %36

36:                                               ; preds = %31, %27
  %37 = sext i32 %25 to i64
  %38 = getelementptr inbounds [101 x i8], [101 x i8]* %3, i64 0, i64 %37
  store i8 %29, i8* %38, align 1, !tbaa !5
  %39 = add nsw i32 %25, 1
  br label %40

40:                                               ; preds = %36, %31, %22
  %41 = phi i32 [ %23, %22 ], [ %39, %36 ], [ %25, %31 ]
  %42 = icmp sgt i32 %41, 0
  br i1 %42, label %43, label %74

43:                                               ; preds = %40
  %44 = zext i32 %41 to i64
  br label %67

45:                                               ; preds = %83, %20
  %46 = phi i64 [ 0, %20 ], [ %85, %83 ]
  %47 = phi i32 [ 0, %20 ], [ %84, %83 ]
  %48 = phi i64 [ %21, %20 ], [ %86, %83 ]
  %49 = getelementptr inbounds [101 x i8], [101 x i8]* %2, i64 0, i64 %46
  %50 = load i8, i8* %49, align 2, !tbaa !5
  %51 = icmp eq i8 %50, 32
  br i1 %51, label %52, label %57

52:                                               ; preds = %45
  %53 = add nsw i64 %46, -1
  %54 = getelementptr inbounds [101 x i8], [101 x i8]* %2, i64 0, i64 %53
  %55 = load i8, i8* %54, align 1, !tbaa !5
  %56 = icmp eq i8 %55, 32
  br i1 %56, label %61, label %57

57:                                               ; preds = %52, %45
  %58 = sext i32 %47 to i64
  %59 = getelementptr inbounds [101 x i8], [101 x i8]* %3, i64 0, i64 %58
  store i8 %50, i8* %59, align 1, !tbaa !5
  %60 = add nsw i32 %47, 1
  br label %61

61:                                               ; preds = %52, %57
  %62 = phi i32 [ %60, %57 ], [ %47, %52 ]
  %63 = or i64 %46, 1
  %64 = getelementptr inbounds [101 x i8], [101 x i8]* %2, i64 0, i64 %63
  %65 = load i8, i8* %64, align 1, !tbaa !5
  %66 = icmp eq i8 %65, 32
  br i1 %66, label %75, label %79

67:                                               ; preds = %43, %67
  %68 = phi i64 [ 0, %43 ], [ %72, %67 ]
  %69 = getelementptr inbounds [101 x i8], [101 x i8]* %3, i64 0, i64 %68
  %70 = load i8, i8* %69, align 1, !tbaa !5
  call void @llvm.lifetime.start.p0i8(i64 1, i8* nonnull %1)
  store i8 %70, i8* %1, align 1, !tbaa !5
  %71 = call nonnull align 8 dereferenceable(8) %"class.std::basic_ostream"* @_ZSt16__ostream_insertIcSt11char_traitsIcEERSt13basic_ostreamIT_T0_ES6_PKS3_l(%"class.std::basic_ostream"* nonnull align 8 dereferenceable(8) @_ZSt4cout, i8* nonnull %1, i64 1)
  call void @llvm.lifetime.end.p0i8(i64 1, i8* nonnull %1)
  %72 = add nuw nsw i64 %68, 1
  %73 = icmp eq i64 %72, %44
  br i1 %73, label %74, label %67, !llvm.loop !10

74:                                               ; preds = %67, %13, %40
  call void @llvm.lifetime.end.p0i8(i64 101, i8* nonnull %5) #6
  call void @llvm.lifetime.end.p0i8(i64 101, i8* nonnull %4) #6
  ret i32 0

75:                                               ; preds = %61
  %76 = getelementptr inbounds [101 x i8], [101 x i8]* %2, i64 0, i64 %46
  %77 = load i8, i8* %76, align 2, !tbaa !5
  %78 = icmp eq i8 %77, 32
  br i1 %78, label %83, label %79

79:                                               ; preds = %75, %61
  %80 = sext i32 %62 to i64
  %81 = getelementptr inbounds [101 x i8], [101 x i8]* %3, i64 0, i64 %80
  store i8 %65, i8* %81, align 1, !tbaa !5
  %82 = add nsw i32 %62, 1
  br label %83

83:                                               ; preds = %79, %75
  %84 = phi i32 [ %82, %79 ], [ %62, %75 ]
  %85 = add nuw nsw i64 %46, 2
  %86 = add i64 %48, -2
  %87 = icmp eq i64 %86, 0
  br i1 %87, label %22, label %45, !llvm.loop !11
}

; Function Attrs: argmemonly mustprogress nofree nosync nounwind willreturn
declare void @llvm.lifetime.start.p0i8(i64 immarg, i8* nocapture) #4

declare nonnull align 8 dereferenceable(16) %"class.std::basic_istream"* @_ZNSi3getERc(%"class.std::basic_istream"* nonnull align 8 dereferenceable(16), i8* nonnull align 1 dereferenceable(1)) local_unnamed_addr #0

; Function Attrs: argmemonly mustprogress nofree nosync nounwind willreturn
declare void @llvm.lifetime.end.p0i8(i64 immarg, i8* nocapture) #4

declare nonnull align 8 dereferenceable(8) %"class.std::basic_ostream"* @_ZSt16__ostream_insertIcSt11char_traitsIcEERSt13basic_ostreamIT_T0_ES6_PKS3_l(%"class.std::basic_ostream"* nonnull align 8 dereferenceable(8), i8*, i64) local_unnamed_addr #0

; Function Attrs: sspstrong uwtable
define internal void @_GLOBAL__sub_I_1153.cpp() #5 section ".text.startup" {
  tail call void @_ZNSt8ios_base4InitC1Ev(%"class.std::ios_base::Init"* nonnull align 1 dereferenceable(1) @_ZStL8__ioinit)
  %1 = tail call i32 @__cxa_atexit(void (i8*)* bitcast (void (%"class.std::ios_base::Init"*)* @_ZNSt8ios_base4InitD1Ev to void (i8*)*), i8* getelementptr inbounds (%"class.std::ios_base::Init", %"class.std::ios_base::Init"* @_ZStL8__ioinit, i64 0, i32 0), i8* nonnull @__dso_handle) #6
  ret void
}


!llvm.module.flags = !{!0, !1, !2, !3}
!llvm.ident = !{!4}

!0 = !{i32 1, !"wchar_size", i32 4}
!1 = !{i32 7, !"PIC Level", i32 2}
!2 = !{i32 7, !"PIE Level", i32 2}
!3 = !{i32 7, !"uwtable", i32 1}
!4 = !{!"clang version 13.0.0"}
!5 = !{!6, !6, i64 0}
!6 = !{!"omnipotent char", !7, i64 0}
!7 = !{!"Simple C++ TBAA"}
!8 = distinct !{!8, !9}
!9 = !{!"llvm.loop.mustprogress"}
!10 = distinct !{!10, !9}
!11 = distinct !{!11, !9}
